; Function Attrs: mustprogress uwtable
define internal void @"_ZZN9grpc_core21promise_filter_detail12BaseCallData6WakeupEtEN3$_08__invokeEPvN4absl12lts_202308026StatusE"(ptr noundef %p, ptr nocapture readnone %0) #3 align 2 {
entry:
  %vtable.i = load ptr, ptr %p, align 8
  %vfn.i = getelementptr inbounds i8, ptr %vtable.i, i64 120
  %1 = load ptr, ptr %vfn.i, align 8
  tail call void %1(ptr noundef nonnull align 8 dereferenceable(120) %p)
  %call_stack_.i.i = getelementptr inbounds i8, ptr %p, i64 16
  %2 = load ptr, ptr %call_stack_.i.i, align 8
  %3 = atomicrmw sub ptr %2, i64 1 acq_rel, align 8
  %cmp.i.i.i.i = icmp eq i64 %3, 1
  br i1 %cmp.i.i.i.i, label %if.then.i.i.i, label %"_ZZN9grpc_core21promise_filter_detail12BaseCallData6WakeupEtENK3$_0clEPvN4absl12lts_202308026StatusE.exit"

if.then.i.i.i:                                    ; preds = %entry
  tail call void @_Z19grpc_stream_destroyP20grpc_stream_refcount(ptr noundef nonnull %2)
  br label %"_ZZN9grpc_core21promise_filter_detail12BaseCallData6WakeupEtENK3$_0clEPvN4absl12lts_202308026StatusE.exit"

"_ZZN9grpc_core21promise_filter_detail12BaseCallData6WakeupEtENK3$_0clEPvN4absl12lts_202308026StatusE.exit": ; preds = %entry, %if.then.i.i.i
  ret void
}